target datalayout = "e-m:e-p270:32:32-p271:32:32-p272:64:64-i64:64-i128:128-f80:128-n8:16:32:64-S128"
target triple = "x86_64-pc-linux-gnu"

%"struct.Luau::CodeGen::RegisterSet" = type <{ %"class.std::bitset", i8, i8, [6 x i8] }>
%"class.std::bitset" = type { %"struct.std::_Base_bitset" }
%"struct.std::_Base_bitset" = type { [4 x i64] }

@.str.5 = private unnamed_addr constant [13 x i8] c"bitset::test\00", align 1
@.str.6 = private unnamed_addr constant [52 x i8] c"%s: __position (which is %zu) >= _Nb (which is %zu)\00", align 1
@.str.7 = private unnamed_addr constant [12 x i8] c"bitset::set\00", align 1

; Function Attrs: mustprogress nounwind uwtable
define linkonce_odr dso_local noundef i64 @_ZNSt12_Base_bitsetILm4EE11_S_whichbitEm(i64 noundef %0) #1 comdat align 2 {
  %2 = alloca i64, align 8
  store i64 %0, ptr %2, align 8
  %3 = load i64, ptr %2, align 8
  %4 = urem i64 %3, 64
  ret i64 %4
}

; Function Attrs: mustprogress nounwind uwtable
define linkonce_odr dso_local noundef i64 @_ZNSt12_Base_bitsetILm4EE12_S_whichwordEm(i64 noundef %0) #1 comdat align 2 {
  %2 = alloca i64, align 8
  store i64 %0, ptr %2, align 8
  %3 = load i64, ptr %2, align 8
  %4 = udiv i64 %3, 64
  ret i64 %4
}

; Function Attrs: mustprogress nounwind uwtable
define linkonce_odr dso_local noundef nonnull align 8 dereferenceable(8) ptr @_ZNSt12_Base_bitsetILm4EE10_M_getwordEm(ptr noundef nonnull align 8 dereferenceable(32) %0, i64 noundef %1) #1 comdat align 2 {
  %3 = alloca ptr, align 8
  %4 = alloca i64, align 8
  store ptr %0, ptr %3, align 8
  store i64 %1, ptr %4, align 8
  %5 = load ptr, ptr %3, align 8
  %6 = getelementptr inbounds %"struct.std::_Base_bitset", ptr %5, i32 0, i32 0
  %7 = load i64, ptr %4, align 8
  %8 = call noundef i64 @_ZNSt12_Base_bitsetILm4EE12_S_whichwordEm(i64 noundef %7) #10
  %9 = getelementptr inbounds [4 x i64], ptr %6, i64 0, i64 %8
  ret ptr %9
}

; Function Attrs: mustprogress nounwind uwtable
define linkonce_odr dso_local noundef i64 @_ZNSt12_Base_bitsetILm4EE10_S_maskbitEm(i64 noundef %0) #1 comdat align 2 {
  %2 = alloca i64, align 8
  store i64 %0, ptr %2, align 8
  %3 = load i64, ptr %2, align 8
  %4 = call noundef i64 @_ZNSt12_Base_bitsetILm4EE11_S_whichbitEm(i64 noundef %3) #10
  %5 = shl i64 1, %4
  ret i64 %5
}

; Function Attrs: mustprogress nounwind uwtable
define linkonce_odr dso_local noundef i64 @_ZNKSt12_Base_bitsetILm4EE10_M_getwordEm(ptr noundef nonnull align 8 dereferenceable(32) %0, i64 noundef %1) #1 comdat align 2 {
  %3 = alloca ptr, align 8
  %4 = alloca i64, align 8
  store ptr %0, ptr %3, align 8
  store i64 %1, ptr %4, align 8
  %5 = load ptr, ptr %3, align 8
  %6 = getelementptr inbounds %"struct.std::_Base_bitset", ptr %5, i32 0, i32 0
  %7 = load i64, ptr %4, align 8
  %8 = call noundef i64 @_ZNSt12_Base_bitsetILm4EE12_S_whichwordEm(i64 noundef %7) #10
  %9 = getelementptr inbounds [4 x i64], ptr %6, i64 0, i64 %8
  %10 = load i64, ptr %9, align 8
  ret i64 %10
}

; Function Attrs: mustprogress nounwind uwtable
define linkonce_odr dso_local noundef nonnull align 8 dereferenceable(32) ptr @_ZNSt6bitsetILm256EE14_Unchecked_setEmi(ptr noundef nonnull align 8 dereferenceable(32) %0, i64 noundef %1, i32 noundef %2) #1 comdat align 2 {
  %4 = alloca ptr, align 8
  %5 = alloca i64, align 8
  %6 = alloca i32, align 4
  store ptr %0, ptr %4, align 8
  store i64 %1, ptr %5, align 8
  store i32 %2, ptr %6, align 4
  %7 = load ptr, ptr %4, align 8
  %8 = load i32, ptr %6, align 4
  %9 = icmp ne i32 %8, 0
  br i1 %9, label %10, label %17

10:                                               ; preds = %3
  %11 = load i64, ptr %5, align 8
  %12 = call noundef i64 @_ZNSt12_Base_bitsetILm4EE10_S_maskbitEm(i64 noundef %11) #10
  %13 = load i64, ptr %5, align 8
  %14 = call noundef nonnull align 8 dereferenceable(8) ptr @_ZNSt12_Base_bitsetILm4EE10_M_getwordEm(ptr noundef nonnull align 8 dereferenceable(32) %7, i64 noundef %13) #10
  %15 = load i64, ptr %14, align 8
  %16 = or i64 %15, %12
  store i64 %16, ptr %14, align 8
  br label %25

17:                                               ; preds = %3
  %18 = load i64, ptr %5, align 8
  %19 = call noundef i64 @_ZNSt12_Base_bitsetILm4EE10_S_maskbitEm(i64 noundef %18) #10
  %20 = xor i64 %19, -1
  %21 = load i64, ptr %5, align 8
  %22 = call noundef nonnull align 8 dereferenceable(8) ptr @_ZNSt12_Base_bitsetILm4EE10_M_getwordEm(ptr noundef nonnull align 8 dereferenceable(32) %7, i64 noundef %21) #10
  %23 = load i64, ptr %22, align 8
  %24 = and i64 %23, %20
  store i64 %24, ptr %22, align 8
  br label %25

25:                                               ; preds = %17, %10
  ret ptr %7
}

; Function Attrs: mustprogress nounwind uwtable
define linkonce_odr dso_local noundef zeroext i1 @_ZNKSt6bitsetILm256EE15_Unchecked_testEm(ptr noundef nonnull align 8 dereferenceable(32) %0, i64 noundef %1) #1 comdat align 2 {
  %3 = alloca ptr, align 8
  %4 = alloca i64, align 8
  store ptr %0, ptr %3, align 8
  store i64 %1, ptr %4, align 8
  %5 = load ptr, ptr %3, align 8
  %6 = load i64, ptr %4, align 8
  %7 = call noundef i64 @_ZNKSt12_Base_bitsetILm4EE10_M_getwordEm(ptr noundef nonnull align 8 dereferenceable(32) %5, i64 noundef %6) #10
  %8 = load i64, ptr %4, align 8
  %9 = call noundef i64 @_ZNSt12_Base_bitsetILm4EE10_S_maskbitEm(i64 noundef %8) #10
  %10 = and i64 %7, %9
  %11 = icmp ne i64 %10, 0
  ret i1 %11
}

; Function Attrs: mustprogress uwtable
define linkonce_odr dso_local void @_ZNKSt6bitsetILm256EE8_M_checkEmPKc(ptr noundef nonnull align 8 dereferenceable(32) %0, i64 noundef %1, ptr noundef %2) #2 comdat align 2 {
  %4 = alloca ptr, align 8
  %5 = alloca i64, align 8
  %6 = alloca ptr, align 8
  store ptr %0, ptr %4, align 8
  store i64 %1, ptr %5, align 8
  store ptr %2, ptr %6, align 8
  %7 = load i64, ptr %5, align 8
  %8 = icmp uge i64 %7, 256
  br i1 %8, label %9, label %12

9:                                                ; preds = %3
  %10 = load ptr, ptr %6, align 8
  %11 = load i64, ptr %5, align 8
  call void (ptr, ...) @_ZSt24__throw_out_of_range_fmtPKcz(ptr noundef @.str.6, ptr noundef %10, i64 noundef %11, i64 noundef 256) #12
  unreachable

12:                                               ; preds = %3
  ret void
}

; Function Attrs: mustprogress uwtable
define linkonce_odr dso_local noundef nonnull align 8 dereferenceable(32) ptr @_ZNSt6bitsetILm256EE3setEmb(ptr noundef nonnull align 8 dereferenceable(32) %0, i64 noundef %1, i1 noundef zeroext %2) #2 comdat align 2 {
  %4 = alloca ptr, align 8
  %5 = alloca i64, align 8
  %6 = alloca i8, align 1
  store ptr %0, ptr %4, align 8
  store i64 %1, ptr %5, align 8
  %7 = zext i1 %2 to i8
  store i8 %7, ptr %6, align 1
  %8 = load ptr, ptr %4, align 8
  %9 = load i64, ptr %5, align 8
  call void @_ZNKSt6bitsetILm256EE8_M_checkEmPKc(ptr noundef nonnull align 8 dereferenceable(32) %8, i64 noundef %9, ptr noundef @.str.7)
  %10 = load i64, ptr %5, align 8
  %11 = load i8, ptr %6, align 1
  %12 = trunc i8 %11 to i1
  %13 = zext i1 %12 to i32
  %14 = call noundef nonnull align 8 dereferenceable(32) ptr @_ZNSt6bitsetILm256EE14_Unchecked_setEmi(ptr noundef nonnull align 8 dereferenceable(32) %8, i64 noundef %10, i32 noundef %13) #10
  ret ptr %14
}

; Function Attrs: mustprogress uwtable
define linkonce_odr dso_local noundef zeroext i1 @_ZNKSt6bitsetILm256EE4testEm(ptr noundef nonnull align 8 dereferenceable(32) %0, i64 noundef %1) #2 comdat align 2 {
  %3 = alloca ptr, align 8
  %4 = alloca i64, align 8
  store ptr %0, ptr %3, align 8
  store i64 %1, ptr %4, align 8
  %5 = load ptr, ptr %3, align 8
  %6 = load i64, ptr %4, align 8
  call void @_ZNKSt6bitsetILm256EE8_M_checkEmPKc(ptr noundef nonnull align 8 dereferenceable(32) %5, i64 noundef %6, ptr noundef @.str.5)
  %7 = load i64, ptr %4, align 8
  %8 = call noundef zeroext i1 @_ZNKSt6bitsetILm256EE15_Unchecked_testEm(ptr noundef nonnull align 8 dereferenceable(32) %5, i64 noundef %7) #10
  ret i1 %8
}

; Function Attrs: mustprogress uwtable
define dso_local void @_ZN4Luau7CodeGen23requireVariadicSequenceERNS0_11RegisterSetERKS1_h(ptr noundef nonnull align 8 dereferenceable(34) %0, ptr noundef nonnull align 8 dereferenceable(34) %1, i8 noundef zeroext %2) #2 {
  %4 = alloca ptr, align 8
  %5 = alloca ptr, align 8
  %6 = alloca i8, align 1
  %7 = alloca i32, align 4
  store ptr %0, ptr %4, align 8
  store ptr %1, ptr %5, align 8
  store i8 %2, ptr %6, align 1
  %8 = load ptr, ptr %5, align 8
  %9 = getelementptr inbounds %"struct.Luau::CodeGen::RegisterSet", ptr %8, i32 0, i32 1
  %10 = load i8, ptr %9, align 8
  %11 = trunc i8 %10 to i1
  br i1 %11, label %28, label %12

12:                                               ; preds = %3
  br label %13

13:                                               ; preds = %19, %12
  %14 = load ptr, ptr %5, align 8
  %15 = getelementptr inbounds %"struct.Luau::CodeGen::RegisterSet", ptr %14, i32 0, i32 0
  %16 = load i8, ptr %6, align 1
  %17 = zext i8 %16 to i64
  %18 = call noundef zeroext i1 @_ZNKSt6bitsetILm256EE4testEm(ptr noundef nonnull align 8 dereferenceable(32) %15, i64 noundef %17)
  br i1 %18, label %19, label %22

19:                                               ; preds = %13
  %20 = load i8, ptr %6, align 1
  %21 = add i8 %20, 1
  store i8 %21, ptr %6, align 1
  br label %13, !llvm.loop !10

22:                                               ; preds = %13
  %23 = load ptr, ptr %4, align 8
  %24 = getelementptr inbounds %"struct.Luau::CodeGen::RegisterSet", ptr %23, i32 0, i32 1
  store i8 1, ptr %24, align 8
  %25 = load i8, ptr %6, align 1
  %26 = load ptr, ptr %4, align 8
  %27 = getelementptr inbounds %"struct.Luau::CodeGen::RegisterSet", ptr %26, i32 0, i32 2
  store i8 %25, ptr %27, align 1
  br label %55

28:                                               ; preds = %3
  %29 = load i8, ptr %6, align 1
  %30 = zext i8 %29 to i32
  store i32 %30, ptr %7, align 4
  br label %31

31:                                               ; preds = %51, %28
  %32 = load i32, ptr %7, align 4
  %33 = load ptr, ptr %5, align 8
  %34 = getelementptr inbounds %"struct.Luau::CodeGen::RegisterSet", ptr %33, i32 0, i32 2
  %35 = load i8, ptr %34, align 1
  %36 = zext i8 %35 to i32
  %37 = icmp slt i32 %32, %36
  br i1 %37, label %38, label %54

38:                                               ; preds = %31
  %39 = load ptr, ptr %5, align 8
  %40 = getelementptr inbounds %"struct.Luau::CodeGen::RegisterSet", ptr %39, i32 0, i32 0
  %41 = load i32, ptr %7, align 4
  %42 = sext i32 %41 to i64
  %43 = call noundef zeroext i1 @_ZNKSt6bitsetILm256EE4testEm(ptr noundef nonnull align 8 dereferenceable(32) %40, i64 noundef %42)
  br i1 %43, label %50, label %44

44:                                               ; preds = %38
  %45 = load ptr, ptr %4, align 8
  %46 = getelementptr inbounds %"struct.Luau::CodeGen::RegisterSet", ptr %45, i32 0, i32 0
  %47 = load i32, ptr %7, align 4
  %48 = sext i32 %47 to i64
  %49 = call noundef nonnull align 8 dereferenceable(32) ptr @_ZNSt6bitsetILm256EE3setEmb(ptr noundef nonnull align 8 dereferenceable(32) %46, i64 noundef %48, i1 noundef zeroext true)
  br label %50

50:                                               ; preds = %44, %38
  br label %51

51:                                               ; preds = %50
  %52 = load i32, ptr %7, align 4
  %53 = add nsw i32 %52, 1
  store i32 %53, ptr %7, align 4
  br label %31, !llvm.loop !11

54:                                               ; preds = %31
  br label %55

55:                                               ; preds = %54, %22
  ret void
}