; Function Attrs: mustprogress nofree norecurse nosync nounwind memory(argmem: readwrite) uwtable
define dso_local void @_ZN4Luau7CodeGen23requireVariadicSequenceERNS0_11RegisterSetERKS1_h(ptr nocapture noundef nonnull align 8 dereferenceable(34) %0, ptr nocapture noundef nonnull readonly align 8 dereferenceable(34) %1, i8 noundef zeroext %2) local_unnamed_addr #3 {
  %4 = getelementptr inbounds i8, ptr %1, i64 32
  %5 = load i8, ptr %4, align 8
  %6 = trunc i8 %5 to i1
  br i1 %6, label %18, label %.preheader

.preheader:                                       ; preds = %3, %.preheader
  %.014 = phi i8 [ %14, %.preheader ], [ %2, %3 ]
  %7 = zext i8 %.014 to i64
  %8 = lshr i64 %7, 6
  %9 = getelementptr inbounds [4 x i64], ptr %1, i64 0, i64 %8
  %10 = load i64, ptr %9, align 8
  %11 = and i64 %7, 63
  %12 = shl nuw i64 1, %11
  %13 = and i64 %12, %10
  %.not = icmp eq i64 %13, 0
  %14 = add i8 %.014, 1
  br i1 %.not, label %15, label %.preheader, !llvm.loop !10

15:                                               ; preds = %.preheader
  %16 = getelementptr inbounds i8, ptr %0, i64 32
  store i8 1, ptr %16, align 8
  %17 = getelementptr inbounds i8, ptr %0, i64 33
  store i8 %.014, ptr %17, align 1
  br label %.loopexit

18:                                               ; preds = %3
  %19 = getelementptr inbounds i8, ptr %1, i64 33
  %20 = load i8, ptr %19, align 1
  %21 = icmp ugt i8 %20, %2
  br i1 %21, label %_ZNKSt6bitsetILm256EE4testEm.exit.preheader, label %.loopexit

_ZNKSt6bitsetILm256EE4testEm.exit.preheader:      ; preds = %18
  %22 = zext i8 %2 to i64
  br label %_ZNKSt6bitsetILm256EE4testEm.exit

_ZNKSt6bitsetILm256EE4testEm.exit:                ; preds = %_ZNKSt6bitsetILm256EE4testEm.exit.preheader, %33
  %23 = phi i8 [ %20, %_ZNKSt6bitsetILm256EE4testEm.exit.preheader ], [ %34, %33 ]
  %indvars.iv = phi i64 [ %22, %_ZNKSt6bitsetILm256EE4testEm.exit.preheader ], [ %indvars.iv.next, %33 ]
  %24 = lshr i64 %indvars.iv, 6
  %25 = getelementptr inbounds [4 x i64], ptr %1, i64 0, i64 %24
  %26 = load i64, ptr %25, align 8
  %27 = and i64 %indvars.iv, 63
  %28 = shl nuw i64 1, %27
  %29 = and i64 %26, %28
  %.not15 = icmp eq i64 %29, 0
  br i1 %.not15, label %_ZNSt6bitsetILm256EE3setEmb.exit, label %33

_ZNSt6bitsetILm256EE3setEmb.exit:                 ; preds = %_ZNKSt6bitsetILm256EE4testEm.exit
  %30 = getelementptr inbounds [4 x i64], ptr %0, i64 0, i64 %24
  %31 = load i64, ptr %30, align 8
  %32 = or i64 %31, %28
  store i64 %32, ptr %30, align 8
  %.pre = load i8, ptr %19, align 1
  br label %33

33:                                               ; preds = %_ZNKSt6bitsetILm256EE4testEm.exit, %_ZNSt6bitsetILm256EE3setEmb.exit
  %34 = phi i8 [ %23, %_ZNKSt6bitsetILm256EE4testEm.exit ], [ %.pre, %_ZNSt6bitsetILm256EE3setEmb.exit ]
  %indvars.iv.next = add nuw nsw i64 %indvars.iv, 1
  %35 = zext i8 %34 to i64
  %36 = icmp ult i64 %indvars.iv.next, %35
  br i1 %36, label %_ZNKSt6bitsetILm256EE4testEm.exit, label %.loopexit, !llvm.loop !11

.loopexit:                                        ; preds = %33, %18, %15
  ret void
}